target datalayout = "e-m:e-p270:32:32-p271:32:32-p272:64:64-i64:64-i128:128-f80:128-n8:16:32:64-S128"
target triple = "x86_64-pc-linux-gnu"

%struct.UConverterLoadArgs = type { i32, i32, i8, i8, i16, i32, ptr, ptr, ptr }
%struct.UConverterNamePieces = type { [60 x i8], [157 x i8], i32 }

@.str.12 = private unnamed_addr constant [8 x i8] c"locale=\00", align 1
@.str.13 = private unnamed_addr constant [9 x i8] c"version=\00", align 1
@.str.14 = private unnamed_addr constant [9 x i8] c"swaplfnl\00", align 1

; Function Attrs: mustprogress nounwind uwtable
define internal void @_ZL21parseConverterOptionsPKcP20UConverterNamePiecesP18UConverterLoadArgsP10UErrorCode(ptr noundef %0, ptr noundef %1, ptr noundef %2, ptr noundef %3) #5 {
  %5 = alloca ptr, align 8
  %6 = alloca ptr, align 8
  %7 = alloca ptr, align 8
  %8 = alloca ptr, align 8
  %9 = alloca ptr, align 8
  %10 = alloca i8, align 1
  %11 = alloca i32, align 4
  %12 = alloca i32, align 4
  %13 = alloca ptr, align 8
  store ptr %0, ptr %5, align 8, !tbaa !31
  store ptr %1, ptr %6, align 8, !tbaa !8
  store ptr %2, ptr %7, align 8, !tbaa !8
  store ptr %3, ptr %8, align 8, !tbaa !8
  call void @llvm.lifetime.start.p0(i64 8, ptr %9) #12
  %14 = load ptr, ptr %6, align 8, !tbaa !8
  %15 = getelementptr inbounds nuw %struct.UConverterNamePieces, ptr %14, i32 0, i32 0
  %16 = getelementptr inbounds [60 x i8], ptr %15, i64 0, i64 0
  store ptr %16, ptr %9, align 8, !tbaa !31
  call void @llvm.lifetime.start.p0(i64 1, ptr %10) #12
  call void @llvm.lifetime.start.p0(i64 4, ptr %11) #12
  store i32 0, ptr %11, align 4, !tbaa !46
  %17 = load ptr, ptr %5, align 8, !tbaa !31
  %18 = load ptr, ptr %7, align 8, !tbaa !8
  %19 = getelementptr inbounds nuw %struct.UConverterLoadArgs, ptr %18, i32 0, i32 7
  store ptr %17, ptr %19, align 8, !tbaa !17
  %20 = load ptr, ptr %6, align 8, !tbaa !8
  %21 = getelementptr inbounds nuw %struct.UConverterNamePieces, ptr %20, i32 0, i32 1
  %22 = getelementptr inbounds [157 x i8], ptr %21, i64 0, i64 0
  %23 = load ptr, ptr %7, align 8, !tbaa !8
  %24 = getelementptr inbounds nuw %struct.UConverterLoadArgs, ptr %23, i32 0, i32 8
  store ptr %22, ptr %24, align 8, !tbaa !43
  %25 = load ptr, ptr %6, align 8, !tbaa !8
  %26 = getelementptr inbounds nuw %struct.UConverterNamePieces, ptr %25, i32 0, i32 2
  %27 = load i32, ptr %26, align 4, !tbaa !41
  %28 = load ptr, ptr %7, align 8, !tbaa !8
  %29 = getelementptr inbounds nuw %struct.UConverterLoadArgs, ptr %28, i32 0, i32 5
  store i32 %27, ptr %29, align 4, !tbaa !44
  br label %30

30:                                               ; preds = %50, %4
  %31 = load ptr, ptr %5, align 8, !tbaa !31
  %32 = load i8, ptr %31, align 1, !tbaa !16
  store i8 %32, ptr %10, align 1, !tbaa !16
  %33 = sext i8 %32 to i32
  %34 = icmp ne i32 %33, 0
  br i1 %34, label %35, label %39

35:                                               ; preds = %30
  %36 = load i8, ptr %10, align 1, !tbaa !16
  %37 = sext i8 %36 to i32
  %38 = icmp ne i32 %37, 44
  br label %39

39:                                               ; preds = %35, %30
  %40 = phi i1 [ false, %30 ], [ %38, %35 ]
  br i1 %40, label %41, label %56

41:                                               ; preds = %39
  %42 = load i32, ptr %11, align 4, !tbaa !46
  %43 = add nsw i32 %42, 1
  store i32 %43, ptr %11, align 4, !tbaa !46
  %44 = icmp sge i32 %43, 60
  br i1 %44, label %45, label %50

45:                                               ; preds = %41
  %46 = load ptr, ptr %8, align 8, !tbaa !8
  store i32 1, ptr %46, align 4, !tbaa !9
  %47 = load ptr, ptr %6, align 8, !tbaa !8
  %48 = getelementptr inbounds nuw %struct.UConverterNamePieces, ptr %47, i32 0, i32 0
  %49 = getelementptr inbounds [60 x i8], ptr %48, i64 0, i64 0
  store i8 0, ptr %49, align 4, !tbaa !16
  store i32 1, ptr %12, align 4
  br label %196

50:                                               ; preds = %41
  %51 = load i8, ptr %10, align 1, !tbaa !16
  %52 = load ptr, ptr %9, align 8, !tbaa !31
  %53 = getelementptr inbounds nuw i8, ptr %52, i32 1
  store ptr %53, ptr %9, align 8, !tbaa !31
  store i8 %51, ptr %52, align 1, !tbaa !16
  %54 = load ptr, ptr %5, align 8, !tbaa !31
  %55 = getelementptr inbounds nuw i8, ptr %54, i32 1
  store ptr %55, ptr %5, align 8, !tbaa !31
  br label %30, !llvm.loop !47

56:                                               ; preds = %39
  %57 = load ptr, ptr %9, align 8, !tbaa !31
  store i8 0, ptr %57, align 1, !tbaa !16
  %58 = load ptr, ptr %6, align 8, !tbaa !8
  %59 = getelementptr inbounds nuw %struct.UConverterNamePieces, ptr %58, i32 0, i32 0
  %60 = getelementptr inbounds [60 x i8], ptr %59, i64 0, i64 0
  %61 = load ptr, ptr %7, align 8, !tbaa !8
  %62 = getelementptr inbounds nuw %struct.UConverterLoadArgs, ptr %61, i32 0, i32 7
  store ptr %60, ptr %62, align 8, !tbaa !17
  br label %63

63:                                               ; preds = %194, %56
  %64 = load ptr, ptr %5, align 8, !tbaa !31
  %65 = load i8, ptr %64, align 1, !tbaa !16
  store i8 %65, ptr %10, align 1, !tbaa !16
  %66 = sext i8 %65 to i32
  %67 = icmp ne i32 %66, 0
  br i1 %67, label %68, label %195

68:                                               ; preds = %63
  %69 = load i8, ptr %10, align 1, !tbaa !16
  %70 = sext i8 %69 to i32
  %71 = icmp eq i32 %70, 44
  br i1 %71, label %72, label %75

72:                                               ; preds = %68
  %73 = load ptr, ptr %5, align 8, !tbaa !31
  %74 = getelementptr inbounds nuw i8, ptr %73, i32 1
  store ptr %74, ptr %5, align 8, !tbaa !31
  br label %75

75:                                               ; preds = %72, %68
  %76 = load ptr, ptr %5, align 8, !tbaa !31
  %77 = call i32 @strncmp(ptr noundef %76, ptr noundef @.str.12, i64 noundef 7) #13
  %78 = icmp eq i32 %77, 0
  br i1 %78, label %79, label %116

79:                                               ; preds = %75
  call void @llvm.lifetime.start.p0(i64 8, ptr %13) #12
  %80 = load ptr, ptr %6, align 8, !tbaa !8
  %81 = getelementptr inbounds nuw %struct.UConverterNamePieces, ptr %80, i32 0, i32 1
  %82 = getelementptr inbounds [157 x i8], ptr %81, i64 0, i64 0
  store ptr %82, ptr %13, align 8, !tbaa !31
  %83 = load ptr, ptr %5, align 8, !tbaa !31
  %84 = getelementptr inbounds i8, ptr %83, i64 7
  store ptr %84, ptr %5, align 8, !tbaa !31
  store i32 0, ptr %11, align 4, !tbaa !46
  br label %85

85:                                               ; preds = %107, %79
  %86 = load ptr, ptr %5, align 8, !tbaa !31
  %87 = load i8, ptr %86, align 1, !tbaa !16
  store i8 %87, ptr %10, align 1, !tbaa !16
  %88 = sext i8 %87 to i32
  %89 = icmp ne i32 %88, 0
  br i1 %89, label %90, label %94

90:                                               ; preds = %85
  %91 = load i8, ptr %10, align 1, !tbaa !16
  %92 = sext i8 %91 to i32
  %93 = icmp ne i32 %92, 44
  br label %94

94:                                               ; preds = %90, %85
  %95 = phi i1 [ false, %85 ], [ %93, %90 ]
  br i1 %95, label %96, label %111

96:                                               ; preds = %94
  %97 = load ptr, ptr %5, align 8, !tbaa !31
  %98 = getelementptr inbounds nuw i8, ptr %97, i32 1
  store ptr %98, ptr %5, align 8, !tbaa !31
  %99 = load i32, ptr %11, align 4, !tbaa !46
  %100 = add nsw i32 %99, 1
  store i32 %100, ptr %11, align 4, !tbaa !46
  %101 = icmp sge i32 %100, 157
  br i1 %101, label %102, label %107

102:                                              ; preds = %96
  %103 = load ptr, ptr %8, align 8, !tbaa !8
  store i32 1, ptr %103, align 4, !tbaa !9
  %104 = load ptr, ptr %6, align 8, !tbaa !8
  %105 = getelementptr inbounds nuw %struct.UConverterNamePieces, ptr %104, i32 0, i32 1
  %106 = getelementptr inbounds [157 x i8], ptr %105, i64 0, i64 0
  store i8 0, ptr %106, align 4, !tbaa !16
  store i32 1, ptr %12, align 4
  br label %113

107:                                              ; preds = %96
  %108 = load i8, ptr %10, align 1, !tbaa !16
  %109 = load ptr, ptr %13, align 8, !tbaa !31
  %110 = getelementptr inbounds nuw i8, ptr %109, i32 1
  store ptr %110, ptr %13, align 8, !tbaa !31
  store i8 %108, ptr %109, align 1, !tbaa !16
  br label %85, !llvm.loop !49

111:                                              ; preds = %94
  %112 = load ptr, ptr %13, align 8, !tbaa !31
  store i8 0, ptr %112, align 1, !tbaa !16
  store i32 0, ptr %12, align 4
  br label %113

113:                                              ; preds = %111, %102
  call void @llvm.lifetime.end.p0(i64 8, ptr %13) #12
  %114 = load i32, ptr %12, align 4
  switch i32 %114, label %196 [
    i32 0, label %115
  ]

115:                                              ; preds = %113
  br label %194

116:                                              ; preds = %75
  %117 = load ptr, ptr %5, align 8, !tbaa !31
  %118 = call i32 @strncmp(ptr noundef %117, ptr noundef @.str.13, i64 noundef 8) #13
  %119 = icmp eq i32 %118, 0
  br i1 %119, label %120, label %159

120:                                              ; preds = %116
  %121 = load ptr, ptr %5, align 8, !tbaa !31
  %122 = getelementptr inbounds i8, ptr %121, i64 8
  store ptr %122, ptr %5, align 8, !tbaa !31
  %123 = load ptr, ptr %5, align 8, !tbaa !31
  %124 = load i8, ptr %123, align 1, !tbaa !16
  store i8 %124, ptr %10, align 1, !tbaa !16
  %125 = load i8, ptr %10, align 1, !tbaa !16
  %126 = sext i8 %125 to i32
  %127 = icmp eq i32 %126, 0
  br i1 %127, label %128, label %135

128:                                              ; preds = %120
  %129 = load ptr, ptr %6, align 8, !tbaa !8
  %130 = getelementptr inbounds nuw %struct.UConverterNamePieces, ptr %129, i32 0, i32 2
  %131 = load i32, ptr %130, align 4, !tbaa !41
  %132 = and i32 %131, -16
  store i32 %132, ptr %130, align 4, !tbaa !41
  %133 = load ptr, ptr %7, align 8, !tbaa !8
  %134 = getelementptr inbounds nuw %struct.UConverterLoadArgs, ptr %133, i32 0, i32 5
  store i32 %132, ptr %134, align 4, !tbaa !44
  store i32 1, ptr %12, align 4
  br label %196

135:                                              ; preds = %120
  %136 = load i8, ptr %10, align 1, !tbaa !16
  %137 = sext i8 %136 to i32
  %138 = sub nsw i32 %137, 48
  %139 = trunc i32 %138 to i8
  %140 = zext i8 %139 to i32
  %141 = icmp slt i32 %140, 10
  br i1 %141, label %142, label %157

142:                                              ; preds = %135
  %143 = load ptr, ptr %6, align 8, !tbaa !8
  %144 = getelementptr inbounds nuw %struct.UConverterNamePieces, ptr %143, i32 0, i32 2
  %145 = load i32, ptr %144, align 4, !tbaa !41
  %146 = and i32 %145, -16
  %147 = load i8, ptr %10, align 1, !tbaa !16
  %148 = sext i8 %147 to i32
  %149 = sub nsw i32 %148, 48
  %150 = or i32 %146, %149
  %151 = load ptr, ptr %6, align 8, !tbaa !8
  %152 = getelementptr inbounds nuw %struct.UConverterNamePieces, ptr %151, i32 0, i32 2
  store i32 %150, ptr %152, align 4, !tbaa !41
  %153 = load ptr, ptr %7, align 8, !tbaa !8
  %154 = getelementptr inbounds nuw %struct.UConverterLoadArgs, ptr %153, i32 0, i32 5
  store i32 %150, ptr %154, align 4, !tbaa !44
  %155 = load ptr, ptr %5, align 8, !tbaa !31
  %156 = getelementptr inbounds nuw i8, ptr %155, i32 1
  store ptr %156, ptr %5, align 8, !tbaa !31
  br label %157

157:                                              ; preds = %142, %135
  br label %158

158:                                              ; preds = %157
  br label %193

159:                                              ; preds = %116
  %160 = load ptr, ptr %5, align 8, !tbaa !31
  %161 = call i32 @strncmp(ptr noundef %160, ptr noundef @.str.14, i64 noundef 8) #13
  %162 = icmp eq i32 %161, 0
  br i1 %162, label %163, label %172

163:                                              ; preds = %159
  %164 = load ptr, ptr %5, align 8, !tbaa !31
  %165 = getelementptr inbounds i8, ptr %164, i64 8
  store ptr %165, ptr %5, align 8, !tbaa !31
  %166 = load ptr, ptr %6, align 8, !tbaa !8
  %167 = getelementptr inbounds nuw %struct.UConverterNamePieces, ptr %166, i32 0, i32 2
  %168 = load i32, ptr %167, align 4, !tbaa !41
  %169 = or i32 %168, 16
  store i32 %169, ptr %167, align 4, !tbaa !41
  %170 = load ptr, ptr %7, align 8, !tbaa !8
  %171 = getelementptr inbounds nuw %struct.UConverterLoadArgs, ptr %170, i32 0, i32 5
  store i32 %169, ptr %171, align 4, !tbaa !44
  br label %192

172:                                              ; preds = %159
  br label %173

173:                                              ; preds = %185, %172
  %174 = load ptr, ptr %5, align 8, !tbaa !31
  %175 = getelementptr inbounds nuw i8, ptr %174, i32 1
  store ptr %175, ptr %5, align 8, !tbaa !31
  %176 = load i8, ptr %174, align 1, !tbaa !16
  store i8 %176, ptr %10, align 1, !tbaa !16
  %177 = sext i8 %176 to i32
  %178 = icmp ne i32 %177, 0
  br i1 %178, label %179, label %183

179:                                              ; preds = %173
  %180 = load i8, ptr %10, align 1, !tbaa !16
  %181 = sext i8 %180 to i32
  %182 = icmp ne i32 %181, 44
  br label %183

183:                                              ; preds = %179, %173
  %184 = phi i1 [ false, %173 ], [ %182, %179 ]
  br i1 %184, label %185, label %186

185:                                              ; preds = %183
  br label %173, !llvm.loop !50

186:                                              ; preds = %183
  %187 = load i8, ptr %10, align 1, !tbaa !16
  %188 = sext i8 %187 to i32
  %189 = icmp eq i32 %188, 0
  br i1 %189, label %190, label %191

190:                                              ; preds = %186
  store i32 1, ptr %12, align 4
  br label %196

191:                                              ; preds = %186
  br label %192

192:                                              ; preds = %191, %163
  br label %193

193:                                              ; preds = %192, %158
  br label %194

194:                                              ; preds = %193, %115
  br label %63, !llvm.loop !51

195:                                              ; preds = %63
  store i32 0, ptr %12, align 4
  br label %196

196:                                              ; preds = %195, %190, %128, %113, %45
  call void @llvm.lifetime.end.p0(i64 4, ptr %11) #12
  call void @llvm.lifetime.end.p0(i64 1, ptr %10) #12
  call void @llvm.lifetime.end.p0(i64 8, ptr %9) #12
  %197 = load i32, ptr %12, align 4
  switch i32 %197, label %199 [
    i32 0, label %198
    i32 1, label %198
  ]

198:                                              ; preds = %196, %196
  ret void

199:                                              ; preds = %196
  unreachable
}