; Function Attrs: mustprogress nofree nounwind memory(read, argmem: readwrite, inaccessiblemem: none) uwtable
define internal fastcc void @_ZL21parseConverterOptionsPKcP20UConverterNamePiecesP18UConverterLoadArgsP10UErrorCode(ptr noundef %0, ptr noundef nonnull %1, ptr noundef nonnull writeonly captures(none) initializes((12, 16), (24, 40)) %2, ptr noundef writeonly captures(none) %3) unnamed_addr #4 {
  %5 = getelementptr inbounds nuw i8, ptr %2, i64 24
  store ptr %0, ptr %5, align 8, !tbaa !20
  %6 = getelementptr inbounds nuw i8, ptr %1, i64 60
  %7 = getelementptr inbounds nuw i8, ptr %2, i64 32
  store ptr %6, ptr %7, align 8, !tbaa !47
  %8 = getelementptr inbounds nuw i8, ptr %1, i64 220
  %9 = load i32, ptr %8, align 4, !tbaa !45
  %10 = getelementptr inbounds nuw i8, ptr %2, i64 12
  store i32 %9, ptr %10, align 4, !tbaa !48
  br label %11

11:                                               ; preds = %15, %4
  %.055 = phi ptr [ %0, %4 ], [ %18, %15 ]
  %.054 = phi ptr [ %1, %4 ], [ %17, %15 ]
  %.053 = phi i32 [ 0, %4 ], [ %16, %15 ]
  %12 = load i8, ptr %.055, align 1, !tbaa !19
  switch i8 %12, label %13 [
    i8 44, label %19
    i8 0, label %19
  ]

13:                                               ; preds = %11
  %exitcond = icmp eq i32 %.053, 59
  br i1 %exitcond, label %14, label %15

14:                                               ; preds = %13
  store i32 1, ptr %3, align 4, !tbaa !13
  store i8 0, ptr %1, align 4, !tbaa !19
  br label %.loopexit

15:                                               ; preds = %13
  %16 = add nuw nsw i32 %.053, 1
  %17 = getelementptr inbounds nuw i8, ptr %.054, i64 1
  store i8 %12, ptr %.054, align 1, !tbaa !19
  %18 = getelementptr inbounds nuw i8, ptr %.055, i64 1
  br label %11, !llvm.loop !55

19:                                               ; preds = %11, %11
  store i8 0, ptr %.054, align 1, !tbaa !19
  store ptr %1, ptr %5, align 8, !tbaa !20
  br label %.loopexit64

.loopexit64:                                      ; preds = %.loopexit64.backedge, %19
  %.156 = phi ptr [ %.055, %19 ], [ %.156.be, %.loopexit64.backedge ]
  %20 = load i8, ptr %.156, align 1, !tbaa !19
  switch i8 %20, label %23 [
    i8 0, label %.loopexit
    i8 44, label %21
  ]

21:                                               ; preds = %.loopexit64
  %22 = getelementptr inbounds nuw i8, ptr %.156, i64 1
  br label %23

23:                                               ; preds = %.loopexit64, %21
  %.2 = phi ptr [ %22, %21 ], [ %.156, %.loopexit64 ]
  %24 = tail call i32 @strncmp(ptr noundef nonnull dereferenceable(1) %.2, ptr noundef nonnull dereferenceable(8) @.str.12, i64 noundef 7) #12
  %25 = icmp eq i32 %24, 0
  br i1 %25, label %26, label %38

26:                                               ; preds = %23
  %27 = getelementptr inbounds nuw i8, ptr %.2, i64 7
  br label %28

28:                                               ; preds = %33, %26
  %.3 = phi ptr [ %27, %26 ], [ %31, %33 ]
  %.1 = phi i32 [ 0, %26 ], [ %34, %33 ]
  %.0 = phi ptr [ %6, %26 ], [ %35, %33 ]
  %29 = load i8, ptr %.3, align 1, !tbaa !19
  switch i8 %29, label %30 [
    i8 44, label %36
    i8 0, label %36
  ]

30:                                               ; preds = %28
  %31 = getelementptr inbounds nuw i8, ptr %.3, i64 1
  %exitcond81 = icmp eq i32 %.1, 156
  br i1 %exitcond81, label %32, label %33

32:                                               ; preds = %30
  store i32 1, ptr %3, align 4, !tbaa !13
  store i8 0, ptr %6, align 4, !tbaa !19
  br label %37

33:                                               ; preds = %30
  %34 = add nuw nsw i32 %.1, 1
  %35 = getelementptr inbounds nuw i8, ptr %.0, i64 1
  store i8 %29, ptr %.0, align 1, !tbaa !19
  br label %28, !llvm.loop !56

36:                                               ; preds = %28, %28
  store i8 0, ptr %.0, align 1, !tbaa !19
  br label %37

37:                                               ; preds = %36, %32
  %.4 = phi ptr [ %31, %32 ], [ %.3, %36 ]
  switch i8 %29, label %.loopexit [
    i8 44, label %.loopexit64.backedge
    i8 0, label %.loopexit64.backedge
  ]

.loopexit64.backedge:                             ; preds = %.preheader, %37, %37, %48, %53, %61
  %.156.be = phi ptr [ %.4, %37 ], [ %57, %53 ], [ %42, %48 ], [ %62, %61 ], [ %.4, %37 ], [ %65, %.preheader ]
  br label %.loopexit64, !llvm.loop !57

38:                                               ; preds = %23
  %39 = tail call i32 @strncmp(ptr noundef nonnull dereferenceable(1) %.2, ptr noundef nonnull dereferenceable(9) @.str.13, i64 noundef 8) #12
  %40 = icmp eq i32 %39, 0
  br i1 %40, label %41, label %58

41:                                               ; preds = %38
  %42 = getelementptr inbounds nuw i8, ptr %.2, i64 8
  %43 = load i8, ptr %42, align 1, !tbaa !19
  %44 = icmp eq i8 %43, 0
  br i1 %44, label %45, label %48

45:                                               ; preds = %41
  %46 = load i32, ptr %8, align 4, !tbaa !45
  %47 = and i32 %46, -16
  store i32 %47, ptr %8, align 4, !tbaa !45
  store i32 %47, ptr %10, align 4, !tbaa !48
  br label %.loopexit

48:                                               ; preds = %41
  %49 = sext i8 %43 to i32
  %50 = add nsw i32 %49, -48
  %51 = and i32 %50, 254
  %52 = icmp samesign ult i32 %51, 10
  br i1 %52, label %53, label %.loopexit64.backedge

53:                                               ; preds = %48
  %54 = load i32, ptr %8, align 4, !tbaa !45
  %55 = and i32 %54, -16
  %56 = or i32 %55, %50
  store i32 %56, ptr %8, align 4, !tbaa !45
  store i32 %56, ptr %10, align 4, !tbaa !48
  %57 = getelementptr inbounds nuw i8, ptr %.2, i64 9
  br label %.loopexit64.backedge

58:                                               ; preds = %38
  %59 = tail call i32 @strncmp(ptr noundef nonnull dereferenceable(1) %.2, ptr noundef nonnull dereferenceable(9) @.str.14, i64 noundef 8) #12
  %60 = icmp eq i32 %59, 0
  br i1 %60, label %61, label %.preheader

61:                                               ; preds = %58
  %62 = getelementptr inbounds nuw i8, ptr %.2, i64 8
  %63 = load i32, ptr %8, align 4, !tbaa !45
  %64 = or i32 %63, 16
  store i32 %64, ptr %8, align 4, !tbaa !45
  store i32 %64, ptr %10, align 4, !tbaa !48
  br label %.loopexit64.backedge

.preheader:                                       ; preds = %58, %.preheader
  %.6 = phi ptr [ %65, %.preheader ], [ %.2, %58 ]
  %65 = getelementptr inbounds nuw i8, ptr %.6, i64 1
  %66 = load i8, ptr %.6, align 1, !tbaa !19
  switch i8 %66, label %.preheader [
    i8 0, label %.loopexit
    i8 44, label %.loopexit64.backedge
  ], !llvm.loop !57

.loopexit:                                        ; preds = %.loopexit64, %37, %.preheader, %45, %14
  ret void
}